; Function Attrs: nounwind uwtable
define void @Dau_DsdAddToArray(ptr noundef readonly captures(none) %0, ptr noundef captures(none) %1, i32 noundef %2, i32 noundef %3) local_unnamed_addr #0 {
  %5 = sext i32 %2 to i64
  %6 = getelementptr inbounds i32, ptr %1, i64 %5
  store i32 %3, ptr %6, align 4, !tbaa !3
  %7 = icmp sgt i32 %2, 0
  br i1 %7, label %.lr.ph, label %.loopexit

.lr.ph:                                           ; preds = %4
  %8 = getelementptr i8, ptr %0, i64 160
  br label %9

9:                                                ; preds = %.lr.ph, %103
  %.038 = phi i32 [ %2, %.lr.ph ], [ %106, %103 ]
  %10 = zext nneg i32 %.038 to i64
  %11 = getelementptr inbounds nuw i32, ptr %1, i64 %10
  %12 = load i32, ptr %11, align 4, !tbaa !3
  %13 = ashr i32 %12, 1
  %.val = load ptr, ptr %8, align 8, !tbaa !43
  %14 = add nsw i32 %13, 1
  %15 = getelementptr inbounds nuw i8, ptr %.val, i64 4
  %16 = load i32, ptr %15, align 4, !tbaa !39
  %.not.i.not.i.i = icmp slt i32 %13, %16
  br i1 %.not.i.not.i.i, label %Gia_ObjLevelId.exit, label %17

17:                                               ; preds = %9
  %18 = load i32, ptr %.val, align 8, !tbaa !38
  %19 = shl nsw i32 %18, 1
  %.not.i.i = icmp slt i32 %13, %19
  %.not.i.i.not.i.i = icmp sgt i32 %18, %13
  br i1 %.not.i.i, label %32, label %20

20:                                               ; preds = %17
  br i1 %.not.i.i.not.i.i, label %Vec_IntGrow.exit.i.i.i, label %21

21:                                               ; preds = %20
  %22 = getelementptr inbounds nuw i8, ptr %.val, i64 8
  %23 = load ptr, ptr %22, align 8, !tbaa !40
  %.not9.i.i.i.i = icmp eq ptr %23, null
  %24 = sext i32 %14 to i64
  %25 = shl nsw i64 %24, 2
  br i1 %.not9.i.i.i.i, label %28, label %26

26:                                               ; preds = %21
  %27 = tail call ptr @realloc(ptr noundef nonnull %23, i64 noundef %25) #20
  br label %30

28:                                               ; preds = %21
  %29 = tail call noalias ptr @malloc(i64 noundef %25) #21
  br label %30

30:                                               ; preds = %28, %26
  %31 = phi ptr [ %27, %26 ], [ %29, %28 ]
  store ptr %31, ptr %22, align 8, !tbaa !40
  br label %Vec_IntGrow.exit.sink.split.i.i.i

32:                                               ; preds = %17
  br i1 %.not.i.i.not.i.i, label %Vec_IntGrow.exit.i.i.i, label %33

33:                                               ; preds = %32
  %34 = getelementptr inbounds nuw i8, ptr %.val, i64 8
  %35 = load ptr, ptr %34, align 8, !tbaa !40
  %.not9.i21.i.i.i = icmp eq ptr %35, null
  %36 = sext i32 %19 to i64
  %37 = shl nsw i64 %36, 2
  br i1 %.not9.i21.i.i.i, label %40, label %38

38:                                               ; preds = %33
  %39 = tail call ptr @realloc(ptr noundef nonnull %35, i64 noundef %37) #20
  br label %42

40:                                               ; preds = %33
  %41 = tail call noalias ptr @malloc(i64 noundef %37) #21
  br label %42

42:                                               ; preds = %40, %38
  %43 = phi ptr [ %39, %38 ], [ %41, %40 ]
  store ptr %43, ptr %34, align 8, !tbaa !40
  br label %Vec_IntGrow.exit.sink.split.i.i.i

Vec_IntGrow.exit.sink.split.i.i.i:                ; preds = %42, %30
  %.sink.i.i.i = phi i32 [ %19, %42 ], [ %14, %30 ]
  store i32 %.sink.i.i.i, ptr %.val, align 8, !tbaa !38
  %.pre.i.i = load i32, ptr %15, align 4, !tbaa !39
  br label %Vec_IntGrow.exit.i.i.i

Vec_IntGrow.exit.i.i.i:                           ; preds = %Vec_IntGrow.exit.sink.split.i.i.i, %32, %20
  %44 = phi i32 [ %.pre.i.i, %Vec_IntGrow.exit.sink.split.i.i.i ], [ %16, %32 ], [ %16, %20 ]
  %.not3.i.i = icmp sgt i32 %44, %13
  br i1 %.not3.i.i, label %._crit_edge.i.i.i, label %.lr.ph.i.i.i

.lr.ph.i.i.i:                                     ; preds = %Vec_IntGrow.exit.i.i.i
  %45 = getelementptr inbounds nuw i8, ptr %.val, i64 8
  %46 = load ptr, ptr %45, align 8, !tbaa !40
  %47 = sext i32 %44 to i64
  %48 = shl nsw i64 %47, 2
  %scevgep.i.i.i = getelementptr i8, ptr %46, i64 %48
  %49 = sub i32 %13, %44
  %50 = zext i32 %49 to i64
  %51 = shl nuw nsw i64 %50, 2
  %52 = add nuw nsw i64 %51, 4
  tail call void @llvm.memset.p0.i64(ptr noundef nonnull align 4 dereferenceable(1) %scevgep.i.i.i, i8 0, i64 %52, i1 false), !tbaa !3
  br label %._crit_edge.i.i.i

._crit_edge.i.i.i:                                ; preds = %.lr.ph.i.i.i, %Vec_IntGrow.exit.i.i.i
  store i32 %14, ptr %15, align 4, !tbaa !39
  %.val22.pre = load ptr, ptr %8, align 8, !tbaa !43
  %.phi.trans.insert = getelementptr inbounds nuw i8, ptr %.val22.pre, i64 4
  %.pre = load i32, ptr %.phi.trans.insert, align 4, !tbaa !39
  br label %Gia_ObjLevelId.exit

Gia_ObjLevelId.exit:                              ; preds = %9, %._crit_edge.i.i.i
  %53 = phi i32 [ %16, %9 ], [ %.pre, %._crit_edge.i.i.i ]
  %.val22 = phi ptr [ %.val, %9 ], [ %.val22.pre, %._crit_edge.i.i.i ]
  %54 = getelementptr i8, ptr %.val, i64 8
  %.val.i.i = load ptr, ptr %54, align 8, !tbaa !40
  %55 = sext i32 %13 to i64
  %56 = getelementptr inbounds i32, ptr %.val.i.i, i64 %55
  %57 = load i32, ptr %56, align 4, !tbaa !3
  %58 = getelementptr i8, ptr %11, i64 -4
  %59 = load i32, ptr %58, align 4, !tbaa !3
  %60 = ashr i32 %59, 1
  %61 = add nsw i32 %60, 1
  %62 = getelementptr inbounds nuw i8, ptr %.val22, i64 4
  %.not.i.not.i.i23 = icmp slt i32 %60, %53
  br i1 %.not.i.not.i.i23, label %Gia_ObjLevelId.exit37, label %63

63:                                               ; preds = %Gia_ObjLevelId.exit
  %64 = load i32, ptr %.val22, align 8, !tbaa !38
  %65 = shl nsw i32 %64, 1
  %.not.i.i24 = icmp slt i32 %60, %65
  %.not.i.i.not.i.i25 = icmp sgt i32 %64, %60
  br i1 %.not.i.i24, label %78, label %66

66:                                               ; preds = %63
  br i1 %.not.i.i.not.i.i25, label %Vec_IntGrow.exit.i.i.i30, label %67

67:                                               ; preds = %66
  %68 = getelementptr inbounds nuw i8, ptr %.val22, i64 8
  %69 = load ptr, ptr %68, align 8, !tbaa !40
  %.not9.i.i.i.i26 = icmp eq ptr %69, null
  %70 = sext i32 %61 to i64
  %71 = shl nsw i64 %70, 2
  br i1 %.not9.i.i.i.i26, label %74, label %72

72:                                               ; preds = %67
  %73 = tail call ptr @realloc(ptr noundef nonnull %69, i64 noundef %71) #20
  br label %76

74:                                               ; preds = %67
  %75 = tail call noalias ptr @malloc(i64 noundef %71) #21
  br label %76

76:                                               ; preds = %74, %72
  %77 = phi ptr [ %73, %72 ], [ %75, %74 ]
  store ptr %77, ptr %68, align 8, !tbaa !40
  br label %Vec_IntGrow.exit.sink.split.i.i.i27

78:                                               ; preds = %63
  br i1 %.not.i.i.not.i.i25, label %Vec_IntGrow.exit.i.i.i30, label %79

79:                                               ; preds = %78
  %80 = getelementptr inbounds nuw i8, ptr %.val22, i64 8
  %81 = load ptr, ptr %80, align 8, !tbaa !40
  %.not9.i21.i.i.i36 = icmp eq ptr %81, null
  %82 = sext i32 %65 to i64
  %83 = shl nsw i64 %82, 2
  br i1 %.not9.i21.i.i.i36, label %86, label %84

84:                                               ; preds = %79
  %85 = tail call ptr @realloc(ptr noundef nonnull %81, i64 noundef %83) #20
  br label %88

86:                                               ; preds = %79
  %87 = tail call noalias ptr @malloc(i64 noundef %83) #21
  br label %88

88:                                               ; preds = %86, %84
  %89 = phi ptr [ %85, %84 ], [ %87, %86 ]
  store ptr %89, ptr %80, align 8, !tbaa !40
  br label %Vec_IntGrow.exit.sink.split.i.i.i27

Vec_IntGrow.exit.sink.split.i.i.i27:              ; preds = %88, %76
  %.sink.i.i.i28 = phi i32 [ %65, %88 ], [ %61, %76 ]
  store i32 %.sink.i.i.i28, ptr %.val22, align 8, !tbaa !38
  %.pre.i.i29 = load i32, ptr %62, align 4, !tbaa !39
  br label %Vec_IntGrow.exit.i.i.i30

Vec_IntGrow.exit.i.i.i30:                         ; preds = %Vec_IntGrow.exit.sink.split.i.i.i27, %78, %66
  %90 = phi i32 [ %.pre.i.i29, %Vec_IntGrow.exit.sink.split.i.i.i27 ], [ %53, %78 ], [ %53, %66 ]
  %.not3.i.i31 = icmp sgt i32 %90, %60
  br i1 %.not3.i.i31, label %._crit_edge.i.i.i34, label %.lr.ph.i.i.i32

.lr.ph.i.i.i32:                                   ; preds = %Vec_IntGrow.exit.i.i.i30
  %91 = getelementptr inbounds nuw i8, ptr %.val22, i64 8
  %92 = load ptr, ptr %91, align 8, !tbaa !40
  %93 = sext i32 %90 to i64
  %94 = shl nsw i64 %93, 2
  %scevgep.i.i.i33 = getelementptr i8, ptr %92, i64 %94
  %95 = sub i32 %60, %90
  %96 = zext i32 %95 to i64
  %97 = shl nuw nsw i64 %96, 2
  %98 = add nuw nsw i64 %97, 4
  tail call void @llvm.memset.p0.i64(ptr noundef nonnull align 4 dereferenceable(1) %scevgep.i.i.i33, i8 0, i64 %98, i1 false), !tbaa !3
  br label %._crit_edge.i.i.i34

._crit_edge.i.i.i34:                              ; preds = %.lr.ph.i.i.i32, %Vec_IntGrow.exit.i.i.i30
  store i32 %61, ptr %62, align 4, !tbaa !39
  br label %Gia_ObjLevelId.exit37

Gia_ObjLevelId.exit37:                            ; preds = %Gia_ObjLevelId.exit, %._crit_edge.i.i.i34
  %99 = getelementptr i8, ptr %.val22, i64 8
  %.val.i.i35 = load ptr, ptr %99, align 8, !tbaa !40
  %100 = sext i32 %60 to i64
  %101 = getelementptr inbounds i32, ptr %.val.i.i35, i64 %100
  %102 = load i32, ptr %101, align 4, !tbaa !3
  %.not = icmp sgt i32 %57, %102
  br i1 %.not, label %103, label %.loopexit

103:                                              ; preds = %Gia_ObjLevelId.exit37
  %104 = load i32, ptr %11, align 4, !tbaa !3
  %105 = load i32, ptr %58, align 4, !tbaa !3
  store i32 %105, ptr %11, align 4, !tbaa !3
  store i32 %104, ptr %58, align 4, !tbaa !3
  %106 = add nsw i32 %.038, -1
  %107 = icmp sgt i32 %.038, 1
  br i1 %107, label %9, label %.loopexit, !llvm.loop !44

.loopexit:                                        ; preds = %Gia_ObjLevelId.exit37, %103, %4
  ret void
}